target datalayout = "e-m:e-p270:32:32-p271:32:32-p272:64:64-i64:64-i128:128-f80:128-n8:16:32:64-S128"
target triple = "x86_64-pc-linux-gnu"

%struct.SDL_AtomicInt = type { i32 }
%struct.VulkanRenderer = type { ptr, ptr, %struct.VkPhysicalDeviceProperties2, %struct.VkPhysicalDeviceDriverProperties, %struct.VkPhysicalDeviceFeatures, ptr, i8, i8, i8, i8, i8, i8, i32, i32, %struct.VulkanExtensions, i8, i8, i8, i8, ptr, %struct.VkPhysicalDeviceMemoryProperties, i8, ptr, i32, i32, i32, ptr, ptr, i32, i32, %struct.VulkanFencePool, ptr, ptr, ptr, ptr, ptr, ptr, ptr, i32, i32, ptr, i32, i32, %struct.SDL_AtomicInt, i32, ptr, i32, i32, ptr, i32, i32, ptr, i32, i32, ptr, i32, i32, ptr, i32, i32, ptr, i32, i32, ptr, i32, i32, ptr, ptr, ptr, ptr, ptr, ptr, ptr, ptr, ptr, ptr, ptr, i8, ptr, i32, i32, ptr, ptr, ptr, ptr, ptr, ptr, ptr, ptr, ptr, ptr, ptr, ptr, ptr, ptr, ptr, ptr, ptr, ptr, ptr, ptr, ptr, ptr, ptr, ptr, ptr, ptr, ptr, ptr, ptr, ptr, ptr, ptr, ptr, ptr, ptr, ptr, ptr, ptr, ptr, ptr, ptr, ptr, ptr, ptr, ptr, ptr, ptr, ptr, ptr, ptr, ptr, ptr, ptr, ptr, ptr, ptr, ptr, ptr, ptr, ptr, ptr, ptr, ptr, ptr, ptr, ptr, ptr, ptr, ptr, ptr, ptr, ptr, ptr, ptr, ptr, ptr, ptr, ptr, ptr, ptr, ptr, ptr, ptr, ptr, ptr, ptr, ptr, ptr, ptr, ptr, ptr, ptr, ptr, ptr, ptr, ptr, ptr, ptr, ptr, ptr, ptr, ptr, ptr, ptr, ptr, ptr, ptr, ptr, ptr, ptr }
%struct.VkPhysicalDeviceProperties2 = type { i32, ptr, %struct.VkPhysicalDeviceProperties }
%struct.VkPhysicalDeviceProperties = type { i32, i32, i32, i32, i32, [256 x i8], [16 x i8], %struct.VkPhysicalDeviceLimits, %struct.VkPhysicalDeviceSparseProperties }
%struct.VkPhysicalDeviceLimits = type { i32, i32, i32, i32, i32, i32, i32, i32, i32, i32, i32, i64, i64, i32, i32, i32, i32, i32, i32, i32, i32, i32, i32, i32, i32, i32, i32, i32, i32, i32, i32, i32, i32, i32, i32, i32, i32, i32, i32, i32, i32, i32, i32, i32, i32, i32, i32, i32, i32, i32, i32, i32, [3 x i32], i32, [3 x i32], i32, i32, i32, i32, i32, float, float, i32, [2 x i32], [2 x float], i32, i64, i64, i64, i64, i32, i32, i32, i32, float, float, i32, i32, i32, i32, i32, i32, i32, i32, i32, i32, i32, i32, i32, i32, i32, i32, float, i32, i32, i32, i32, [2 x float], [2 x float], float, float, i32, i32, i64, i64, i64 }
%struct.VkPhysicalDeviceSparseProperties = type { i32, i32, i32, i32, i32 }
%struct.VkPhysicalDeviceDriverProperties = type { i32, ptr, i32, [256 x i8], [256 x i8], %struct.VkConformanceVersion }
%struct.VkConformanceVersion = type { i8, i8, i8, i8 }
%struct.VkPhysicalDeviceFeatures = type { i32, i32, i32, i32, i32, i32, i32, i32, i32, i32, i32, i32, i32, i32, i32, i32, i32, i32, i32, i32, i32, i32, i32, i32, i32, i32, i32, i32, i32, i32, i32, i32, i32, i32, i32, i32, i32, i32, i32, i32, i32, i32, i32, i32, i32, i32, i32, i32, i32, i32, i32, i32, i32, i32, i32 }
%struct.VulkanExtensions = type { i8, i8, i8, i8, i8 }
%struct.VkPhysicalDeviceMemoryProperties = type { i32, [32 x %struct.VkMemoryType], i32, [16 x %struct.VkMemoryHeap] }
%struct.VkMemoryType = type { i32, i32 }
%struct.VkMemoryHeap = type { i64, i32 }
%struct.VulkanFencePool = type { ptr, ptr, i32, i32 }
%struct.VulkanMemoryAllocation = type { ptr, ptr, i64, ptr, i32, i32, ptr, i32, i32, i8, i64, i64, ptr, ptr }
%struct.VulkanMemoryUsedRegion = type { ptr, i64, i64, i64, i64, i64, i8, %union.anon }
%union.anon = type { ptr }

@.str.50 = private unnamed_addr constant [6 x i8] c"%s %s\00", align 1
@.str.51 = private unnamed_addr constant [28 x i8] c"VK_ERROR_OUT_OF_HOST_MEMORY\00", align 1
@.str.52 = private unnamed_addr constant [30 x i8] c"VK_ERROR_OUT_OF_DEVICE_MEMORY\00", align 1
@.str.53 = private unnamed_addr constant [25 x i8] c"VK_ERROR_FRAGMENTED_POOL\00", align 1
@.str.54 = private unnamed_addr constant [28 x i8] c"VK_ERROR_OUT_OF_POOL_MEMORY\00", align 1
@.str.55 = private unnamed_addr constant [31 x i8] c"VK_ERROR_INITIALIZATION_FAILED\00", align 1
@.str.56 = private unnamed_addr constant [27 x i8] c"VK_ERROR_LAYER_NOT_PRESENT\00", align 1
@.str.57 = private unnamed_addr constant [31 x i8] c"VK_ERROR_EXTENSION_NOT_PRESENT\00", align 1
@.str.58 = private unnamed_addr constant [29 x i8] c"VK_ERROR_FEATURE_NOT_PRESENT\00", align 1
@.str.59 = private unnamed_addr constant [26 x i8] c"VK_ERROR_TOO_MANY_OBJECTS\00", align 1
@.str.60 = private unnamed_addr constant [21 x i8] c"VK_ERROR_DEVICE_LOST\00", align 1
@.str.61 = private unnamed_addr constant [29 x i8] c"VK_ERROR_INCOMPATIBLE_DRIVER\00", align 1
@.str.62 = private unnamed_addr constant [25 x i8] c"VK_ERROR_OUT_OF_DATE_KHR\00", align 1
@.str.63 = private unnamed_addr constant [26 x i8] c"VK_ERROR_SURFACE_LOST_KHR\00", align 1
@.str.64 = private unnamed_addr constant [45 x i8] c"VK_ERROR_FULL_SCREEN_EXCLUSIVE_MODE_LOST_EXT\00", align 1
@.str.65 = private unnamed_addr constant [18 x i8] c"VK_SUBOPTIMAL_KHR\00", align 1
@.str.66 = private unnamed_addr constant [34 x i8] c"VK_ERROR_NATIVE_WINDOW_IN_USE_KHR\00", align 1
@.str.67 = private unnamed_addr constant [27 x i8] c"VK_ERROR_INVALID_SHADER_NV\00", align 1
@.str.68 = private unnamed_addr constant [20 x i8] c"Unhandled VkResult!\00", align 1
@.str.97 = private unnamed_addr constant [18 x i8] c"vkBindImageMemory\00", align 1

; Function Attrs: inlinehint nounwind uwtable
define internal ptr @VkErrorMessages(i32 noundef %0) #5 {
  %2 = alloca ptr, align 8
  %3 = alloca i32, align 4
  store i32 %0, ptr %3, align 4
  %4 = load i32, ptr %3, align 4
  switch i32 %4, label %22 [
    i32 -1, label %5
    i32 -2, label %6
    i32 -12, label %7
    i32 -1000069000, label %8
    i32 -3, label %9
    i32 -6, label %10
    i32 -7, label %11
    i32 -8, label %12
    i32 -10, label %13
    i32 -4, label %14
    i32 -9, label %15
    i32 -1000001004, label %16
    i32 -1000000000, label %17
    i32 -1000255000, label %18
    i32 1000001003, label %19
    i32 -1000000001, label %20
    i32 -1000012000, label %21
  ]

5:                                                ; preds = %1
  store ptr @.str.51, ptr %2, align 8
  br label %23

6:                                                ; preds = %1
  store ptr @.str.52, ptr %2, align 8
  br label %23

7:                                                ; preds = %1
  store ptr @.str.53, ptr %2, align 8
  br label %23

8:                                                ; preds = %1
  store ptr @.str.54, ptr %2, align 8
  br label %23

9:                                                ; preds = %1
  store ptr @.str.55, ptr %2, align 8
  br label %23

10:                                               ; preds = %1
  store ptr @.str.56, ptr %2, align 8
  br label %23

11:                                               ; preds = %1
  store ptr @.str.57, ptr %2, align 8
  br label %23

12:                                               ; preds = %1
  store ptr @.str.58, ptr %2, align 8
  br label %23

13:                                               ; preds = %1
  store ptr @.str.59, ptr %2, align 8
  br label %23

14:                                               ; preds = %1
  store ptr @.str.60, ptr %2, align 8
  br label %23

15:                                               ; preds = %1
  store ptr @.str.61, ptr %2, align 8
  br label %23

16:                                               ; preds = %1
  store ptr @.str.62, ptr %2, align 8
  br label %23

17:                                               ; preds = %1
  store ptr @.str.63, ptr %2, align 8
  br label %23

18:                                               ; preds = %1
  store ptr @.str.64, ptr %2, align 8
  br label %23

19:                                               ; preds = %1
  store ptr @.str.65, ptr %2, align 8
  br label %23

20:                                               ; preds = %1
  store ptr @.str.66, ptr %2, align 8
  br label %23

21:                                               ; preds = %1
  store ptr @.str.67, ptr %2, align 8
  br label %23

22:                                               ; preds = %1
  store ptr @.str.68, ptr %2, align 8
  br label %23

23:                                               ; preds = %22, %21, %20, %19, %18, %17, %16, %15, %14, %13, %12, %11, %10, %9, %8, %7, %6, %5
  %24 = load ptr, ptr %2, align 8
  ret ptr %24
}

; Function Attrs: nounwind uwtable
define internal zeroext i8 @VULKAN_INTERNAL_BindImageMemory(ptr noundef %0, ptr noundef %1, i64 noundef %2, ptr noundef %3) #0 {
  %5 = alloca i8, align 1
  %6 = alloca ptr, align 8
  %7 = alloca ptr, align 8
  %8 = alloca i64, align 8
  %9 = alloca ptr, align 8
  %10 = alloca i32, align 4
  %11 = alloca i32, align 4
  store ptr %0, ptr %6, align 8
  store ptr %1, ptr %7, align 8
  store i64 %2, ptr %8, align 8
  store ptr %3, ptr %9, align 8
  call void @llvm.lifetime.start.p0(i64 4, ptr %10) #9
  %12 = load ptr, ptr %7, align 8
  %13 = getelementptr inbounds nuw %struct.VulkanMemoryUsedRegion, ptr %12, i32 0, i32 0
  %14 = load ptr, ptr %13, align 8
  %15 = getelementptr inbounds nuw %struct.VulkanMemoryAllocation, ptr %14, i32 0, i32 13
  %16 = load ptr, ptr %15, align 8
  call void @SDL_LockMutex_REAL(ptr noundef %16)
  %17 = load ptr, ptr %6, align 8
  %18 = getelementptr inbounds nuw %struct.VulkanRenderer, ptr %17, i32 0, i32 107
  %19 = load ptr, ptr %18, align 8
  %20 = load ptr, ptr %6, align 8
  %21 = getelementptr inbounds nuw %struct.VulkanRenderer, ptr %20, i32 0, i32 5
  %22 = load ptr, ptr %21, align 8
  %23 = load ptr, ptr %9, align 8
  %24 = load ptr, ptr %7, align 8
  %25 = getelementptr inbounds nuw %struct.VulkanMemoryUsedRegion, ptr %24, i32 0, i32 0
  %26 = load ptr, ptr %25, align 8
  %27 = getelementptr inbounds nuw %struct.VulkanMemoryAllocation, ptr %26, i32 0, i32 1
  %28 = load ptr, ptr %27, align 8
  %29 = load i64, ptr %8, align 8
  %30 = call i32 %19(ptr noundef %22, ptr noundef %23, ptr noundef %28, i64 noundef %29)
  store i32 %30, ptr %10, align 4
  %31 = load ptr, ptr %7, align 8
  %32 = getelementptr inbounds nuw %struct.VulkanMemoryUsedRegion, ptr %31, i32 0, i32 0
  %33 = load ptr, ptr %32, align 8
  %34 = getelementptr inbounds nuw %struct.VulkanMemoryAllocation, ptr %33, i32 0, i32 13
  %35 = load ptr, ptr %34, align 8
  call void @SDL_UnlockMutex_REAL(ptr noundef %35)
  br label %36

36:                                               ; preds = %4
  %37 = load i32, ptr %10, align 4
  %38 = icmp ne i32 %37, 0
  br i1 %38, label %39, label %51

39:                                               ; preds = %36
  %40 = load ptr, ptr %6, align 8
  %41 = getelementptr inbounds nuw %struct.VulkanRenderer, ptr %40, i32 0, i32 10
  %42 = load i8, ptr %41, align 4, !range !3, !noundef !4
  %43 = trunc i8 %42 to i1
  br i1 %43, label %44, label %47

44:                                               ; preds = %39
  %45 = load i32, ptr %10, align 4
  %46 = call ptr @VkErrorMessages(i32 noundef %45)
  call void (i32, ptr, ...) @SDL_LogError_REAL(i32 noundef 9, ptr noundef @.str.50, ptr noundef @.str.97, ptr noundef %46)
  br label %47

47:                                               ; preds = %44, %39
  %48 = load i32, ptr %10, align 4
  %49 = call ptr @VkErrorMessages(i32 noundef %48)
  %50 = call zeroext i1 (ptr, ...) @SDL_SetError_REAL(ptr noundef @.str.50, ptr noundef @.str.97, ptr noundef %49)
  store i8 0, ptr %5, align 1
  store i32 1, ptr %11, align 4
  br label %54

51:                                               ; preds = %36
  br label %52

52:                                               ; preds = %51
  br label %53

53:                                               ; preds = %52
  store i8 1, ptr %5, align 1
  store i32 1, ptr %11, align 4
  br label %54

54:                                               ; preds = %53, %47
  call void @llvm.lifetime.end.p0(i64 4, ptr %10) #9
  %55 = load i8, ptr %5, align 1
  ret i8 %55
}