; Function Attrs: nounwind uwtable
define internal fastcc zeroext range(i8 0, 2) i8 @VULKAN_INTERNAL_BindImageMemory(ptr noundef readonly captures(none) %0, ptr noundef readonly captures(none) %1, i64 noundef %2, ptr noundef nonnull %3) unnamed_addr #0 {
  %5 = load ptr, ptr %1, align 8
  %6 = getelementptr inbounds nuw i8, ptr %5, i64 88
  %7 = load ptr, ptr %6, align 8
  tail call void @SDL_LockMutex_REAL(ptr noundef %7) #13
  %8 = getelementptr inbounds nuw i8, ptr %0, i64 2784
  %9 = load ptr, ptr %8, align 8
  %10 = getelementptr inbounds nuw i8, ptr %0, i64 1616
  %11 = load ptr, ptr %10, align 8
  %12 = load ptr, ptr %1, align 8
  %13 = getelementptr inbounds nuw i8, ptr %12, i64 8
  %14 = load ptr, ptr %13, align 8
  %15 = tail call i32 %9(ptr noundef %11, ptr noundef nonnull %3, ptr noundef %14, i64 noundef %2) #13
  %16 = load ptr, ptr %1, align 8
  %17 = getelementptr inbounds nuw i8, ptr %16, i64 88
  %18 = load ptr, ptr %17, align 8
  tail call void @SDL_UnlockMutex_REAL(ptr noundef %18) #13
  %.not = icmp eq i32 %15, 0
  br i1 %.not, label %60, label %19

19:                                               ; preds = %4
  %20 = getelementptr inbounds nuw i8, ptr %0, i64 1628
  %21 = load i8, ptr %20, align 4, !range !3, !noundef !4
  %22 = trunc nuw i8 %21 to i1
  br i1 %22, label %23, label %41

23:                                               ; preds = %19
  switch i32 %15, label %40 [
    i32 -1, label %VkErrorMessages.exit
    i32 -2, label %24
    i32 -12, label %25
    i32 -1000069000, label %26
    i32 -3, label %27
    i32 -6, label %28
    i32 -7, label %29
    i32 -8, label %30
    i32 -10, label %31
    i32 -4, label %32
    i32 -9, label %33
    i32 -1000001004, label %34
    i32 -1000000000, label %35
    i32 -1000255000, label %36
    i32 1000001003, label %37
    i32 -1000000001, label %38
    i32 -1000012000, label %39
  ]

24:                                               ; preds = %23
  br label %VkErrorMessages.exit

25:                                               ; preds = %23
  br label %VkErrorMessages.exit

26:                                               ; preds = %23
  br label %VkErrorMessages.exit

27:                                               ; preds = %23
  br label %VkErrorMessages.exit

28:                                               ; preds = %23
  br label %VkErrorMessages.exit

29:                                               ; preds = %23
  br label %VkErrorMessages.exit

30:                                               ; preds = %23
  br label %VkErrorMessages.exit

31:                                               ; preds = %23
  br label %VkErrorMessages.exit

32:                                               ; preds = %23
  br label %VkErrorMessages.exit

33:                                               ; preds = %23
  br label %VkErrorMessages.exit

34:                                               ; preds = %23
  br label %VkErrorMessages.exit

35:                                               ; preds = %23
  br label %VkErrorMessages.exit

36:                                               ; preds = %23
  br label %VkErrorMessages.exit

37:                                               ; preds = %23
  br label %VkErrorMessages.exit

38:                                               ; preds = %23
  br label %VkErrorMessages.exit

39:                                               ; preds = %23
  br label %VkErrorMessages.exit

40:                                               ; preds = %23
  br label %VkErrorMessages.exit

VkErrorMessages.exit:                             ; preds = %23, %24, %25, %26, %27, %28, %29, %30, %31, %32, %33, %34, %35, %36, %37, %38, %39, %40
  %.0.i = phi ptr [ @.str.68, %40 ], [ @.str.67, %39 ], [ @.str.66, %38 ], [ @.str.65, %37 ], [ @.str.64, %36 ], [ @.str.63, %35 ], [ @.str.62, %34 ], [ @.str.61, %33 ], [ @.str.60, %32 ], [ @.str.59, %31 ], [ @.str.58, %30 ], [ @.str.57, %29 ], [ @.str.56, %28 ], [ @.str.55, %27 ], [ @.str.54, %26 ], [ @.str.53, %25 ], [ @.str.52, %24 ], [ @.str.51, %23 ]
  tail call void (i32, ptr, ...) @SDL_LogError_REAL(i32 noundef 9, ptr noundef nonnull @.str.50, ptr noundef nonnull @.str.97, ptr noundef nonnull %.0.i) #13
  br label %41

41:                                               ; preds = %VkErrorMessages.exit, %19
  switch i32 %15, label %58 [
    i32 -1, label %VkErrorMessages.exit13
    i32 -2, label %42
    i32 -12, label %43
    i32 -1000069000, label %44
    i32 -3, label %45
    i32 -6, label %46
    i32 -7, label %47
    i32 -8, label %48
    i32 -10, label %49
    i32 -4, label %50
    i32 -9, label %51
    i32 -1000001004, label %52
    i32 -1000000000, label %53
    i32 -1000255000, label %54
    i32 1000001003, label %55
    i32 -1000000001, label %56
    i32 -1000012000, label %57
  ]

42:                                               ; preds = %41
  br label %VkErrorMessages.exit13

43:                                               ; preds = %41
  br label %VkErrorMessages.exit13

44:                                               ; preds = %41
  br label %VkErrorMessages.exit13

45:                                               ; preds = %41
  br label %VkErrorMessages.exit13

46:                                               ; preds = %41
  br label %VkErrorMessages.exit13

47:                                               ; preds = %41
  br label %VkErrorMessages.exit13

48:                                               ; preds = %41
  br label %VkErrorMessages.exit13

49:                                               ; preds = %41
  br label %VkErrorMessages.exit13

50:                                               ; preds = %41
  br label %VkErrorMessages.exit13

51:                                               ; preds = %41
  br label %VkErrorMessages.exit13

52:                                               ; preds = %41
  br label %VkErrorMessages.exit13

53:                                               ; preds = %41
  br label %VkErrorMessages.exit13

54:                                               ; preds = %41
  br label %VkErrorMessages.exit13

55:                                               ; preds = %41
  br label %VkErrorMessages.exit13

56:                                               ; preds = %41
  br label %VkErrorMessages.exit13

57:                                               ; preds = %41
  br label %VkErrorMessages.exit13

58:                                               ; preds = %41
  br label %VkErrorMessages.exit13

VkErrorMessages.exit13:                           ; preds = %41, %42, %43, %44, %45, %46, %47, %48, %49, %50, %51, %52, %53, %54, %55, %56, %57, %58
  %.0.i12 = phi ptr [ @.str.68, %58 ], [ @.str.67, %57 ], [ @.str.66, %56 ], [ @.str.65, %55 ], [ @.str.64, %54 ], [ @.str.63, %53 ], [ @.str.62, %52 ], [ @.str.61, %51 ], [ @.str.60, %50 ], [ @.str.59, %49 ], [ @.str.58, %48 ], [ @.str.57, %47 ], [ @.str.56, %46 ], [ @.str.55, %45 ], [ @.str.54, %44 ], [ @.str.53, %43 ], [ @.str.52, %42 ], [ @.str.51, %41 ]
  %59 = tail call zeroext i1 (ptr, ...) @SDL_SetError_REAL(ptr noundef nonnull @.str.50, ptr noundef nonnull @.str.97, ptr noundef nonnull %.0.i12) #13
  br label %60

60:                                               ; preds = %4, %VkErrorMessages.exit13
  %.0 = phi i8 [ 0, %VkErrorMessages.exit13 ], [ 1, %4 ]
  ret i8 %.0
}